target datalayout = "e-m:e-p270:32:32-p271:32:32-p272:64:64-i64:64-i128:128-f80:128-n8:16:32:64-S128"
target triple = "x86_64-pc-linux-gnu"

%struct.strbuf = type { i64, i64, ptr }
%struct.stat = type { i64, i64, i64, i32, i32, i32, i32, i64, i64, i64, i64, %struct.timespec, %struct.timespec, %struct.timespec, [3 x i64] }
%struct.timespec = type { i64, i64 }
%struct.dirent = type { i64, i64, i16, i8, [256 x i8] }

@strbuf_slopbuf = external global [0 x i8], align 1
@.str.24 = private unnamed_addr constant [11 x i8] c"./strbuf.h\00", align 1
@.str.25 = private unnamed_addr constant [30 x i8] c"strbuf_setlen() beyond buffer\00", align 1
@.str.26 = private unnamed_addr constant [20 x i8] c"cannot opendir '%s'\00", align 1
@.str.27 = private unnamed_addr constant [18 x i8] c"cannot lstat '%s'\00", align 1
@.str.28 = private unnamed_addr constant [19 x i8] c"cannot unlink '%s'\00", align 1
@.str.29 = private unnamed_addr constant [18 x i8] c"cannot rmdir '%s'\00", align 1

; Function Attrs: inlinehint nounwind uwtable
define internal i64 @strbuf_avail(ptr noundef %0) #4 {
  %2 = alloca ptr, align 8
  store ptr %0, ptr %2, align 8, !tbaa !93
  %3 = load ptr, ptr %2, align 8, !tbaa !93
  %4 = getelementptr inbounds nuw %struct.strbuf, ptr %3, i32 0, i32 0
  %5 = load i64, ptr %4, align 8, !tbaa !95
  %6 = icmp ne i64 %5, 0
  br i1 %6, label %7, label %16

7:                                                ; preds = %1
  %8 = load ptr, ptr %2, align 8, !tbaa !93
  %9 = getelementptr inbounds nuw %struct.strbuf, ptr %8, i32 0, i32 0
  %10 = load i64, ptr %9, align 8, !tbaa !95
  %11 = load ptr, ptr %2, align 8, !tbaa !93
  %12 = getelementptr inbounds nuw %struct.strbuf, ptr %11, i32 0, i32 1
  %13 = load i64, ptr %12, align 8, !tbaa !83
  %14 = sub i64 %10, %13
  %15 = sub i64 %14, 1
  br label %17

16:                                               ; preds = %1
  br label %17

17:                                               ; preds = %16, %7
  %18 = phi i64 [ %15, %7 ], [ 0, %16 ]
  ret i64 %18
}

; Function Attrs: inlinehint nounwind uwtable
define internal void @strbuf_setlen(ptr noundef %0, i64 noundef %1) #4 {
  %3 = alloca ptr, align 8
  %4 = alloca i64, align 8
  store ptr %0, ptr %3, align 8, !tbaa !93
  store i64 %1, ptr %4, align 8, !tbaa !14
  %5 = load i64, ptr %4, align 8, !tbaa !14
  %6 = load ptr, ptr %3, align 8, !tbaa !93
  %7 = getelementptr inbounds nuw %struct.strbuf, ptr %6, i32 0, i32 0
  %8 = load i64, ptr %7, align 8, !tbaa !95
  %9 = icmp ne i64 %8, 0
  br i1 %9, label %10, label %15

10:                                               ; preds = %2
  %11 = load ptr, ptr %3, align 8, !tbaa !93
  %12 = getelementptr inbounds nuw %struct.strbuf, ptr %11, i32 0, i32 0
  %13 = load i64, ptr %12, align 8, !tbaa !95
  %14 = sub i64 %13, 1
  br label %16

15:                                               ; preds = %2
  br label %16

16:                                               ; preds = %15, %10
  %17 = phi i64 [ %14, %10 ], [ 0, %15 ]
  %18 = icmp ugt i64 %5, %17
  br i1 %18, label %19, label %20

19:                                               ; preds = %16
  call void (ptr, i32, ptr, ...) @BUG_fl(ptr noundef @.str.24, i32 noundef 167, ptr noundef @.str.25) #12
  unreachable

20:                                               ; preds = %16
  %21 = load i64, ptr %4, align 8, !tbaa !14
  %22 = load ptr, ptr %3, align 8, !tbaa !93
  %23 = getelementptr inbounds nuw %struct.strbuf, ptr %22, i32 0, i32 1
  store i64 %21, ptr %23, align 8, !tbaa !83
  %24 = load ptr, ptr %3, align 8, !tbaa !93
  %25 = getelementptr inbounds nuw %struct.strbuf, ptr %24, i32 0, i32 2
  %26 = load ptr, ptr %25, align 8, !tbaa !81
  %27 = icmp ne ptr %26, @strbuf_slopbuf
  br i1 %27, label %28, label %34

28:                                               ; preds = %20
  %29 = load ptr, ptr %3, align 8, !tbaa !93
  %30 = getelementptr inbounds nuw %struct.strbuf, ptr %29, i32 0, i32 2
  %31 = load ptr, ptr %30, align 8, !tbaa !81
  %32 = load i64, ptr %4, align 8, !tbaa !14
  %33 = getelementptr inbounds nuw i8, ptr %31, i64 %32
  store i8 0, ptr %33, align 1, !tbaa !57
  br label %35

34:                                               ; preds = %20
  br label %35

35:                                               ; preds = %34, %28
  ret void
}

; Function Attrs: inlinehint nounwind uwtable
define internal void @strbuf_addstr(ptr noundef %0, ptr noundef %1) #4 {
  %3 = alloca ptr, align 8
  %4 = alloca ptr, align 8
  store ptr %0, ptr %3, align 8, !tbaa !93
  store ptr %1, ptr %4, align 8, !tbaa !56
  %5 = load ptr, ptr %3, align 8, !tbaa !93
  %6 = load ptr, ptr %4, align 8, !tbaa !56
  %7 = load ptr, ptr %4, align 8, !tbaa !56
  %8 = call i64 @strlen(ptr noundef %7) #11
  call void @strbuf_add(ptr noundef %5, ptr noundef %6, i64 noundef %8)
  ret void
}

; Function Attrs: inlinehint nounwind uwtable
define internal void @strbuf_addch(ptr noundef %0, i32 noundef %1) #4 {
  %3 = alloca ptr, align 8
  %4 = alloca i32, align 4
  store ptr %0, ptr %3, align 8, !tbaa !93
  store i32 %1, ptr %4, align 4, !tbaa !16
  %5 = load ptr, ptr %3, align 8, !tbaa !93
  %6 = call i64 @strbuf_avail(ptr noundef %5)
  %7 = icmp ne i64 %6, 0
  br i1 %7, label %10, label %8

8:                                                ; preds = %2
  %9 = load ptr, ptr %3, align 8, !tbaa !93
  call void @strbuf_grow(ptr noundef %9, i64 noundef 1)
  br label %10

10:                                               ; preds = %8, %2
  %11 = load i32, ptr %4, align 4, !tbaa !16
  %12 = trunc i32 %11 to i8
  %13 = load ptr, ptr %3, align 8, !tbaa !93
  %14 = getelementptr inbounds nuw %struct.strbuf, ptr %13, i32 0, i32 2
  %15 = load ptr, ptr %14, align 8, !tbaa !81
  %16 = load ptr, ptr %3, align 8, !tbaa !93
  %17 = getelementptr inbounds nuw %struct.strbuf, ptr %16, i32 0, i32 1
  %18 = load i64, ptr %17, align 8, !tbaa !83
  %19 = add i64 %18, 1
  store i64 %19, ptr %17, align 8, !tbaa !83
  %20 = getelementptr inbounds nuw i8, ptr %15, i64 %18
  store i8 %12, ptr %20, align 1, !tbaa !57
  %21 = load ptr, ptr %3, align 8, !tbaa !93
  %22 = getelementptr inbounds nuw %struct.strbuf, ptr %21, i32 0, i32 2
  %23 = load ptr, ptr %22, align 8, !tbaa !81
  %24 = load ptr, ptr %3, align 8, !tbaa !93
  %25 = getelementptr inbounds nuw %struct.strbuf, ptr %24, i32 0, i32 1
  %26 = load i64, ptr %25, align 8, !tbaa !83
  %27 = getelementptr inbounds nuw i8, ptr %23, i64 %26
  store i8 0, ptr %27, align 1, !tbaa !57
  ret void
}

; Function Attrs: nounwind uwtable
define internal void @remove_subtree(ptr noundef %0) #0 {
  %2 = alloca ptr, align 8
  %3 = alloca ptr, align 8
  %4 = alloca ptr, align 8
  %5 = alloca i32, align 4
  %6 = alloca %struct.stat, align 8
  store ptr %0, ptr %2, align 8, !tbaa !93
  call void @llvm.lifetime.start.p0(i64 8, ptr %3) #10
  %7 = load ptr, ptr %2, align 8, !tbaa !93
  %8 = getelementptr inbounds nuw %struct.strbuf, ptr %7, i32 0, i32 2
  %9 = load ptr, ptr %8, align 8, !tbaa !81
  %10 = call ptr @opendir(ptr noundef %9)
  store ptr %10, ptr %3, align 8, !tbaa !100
  call void @llvm.lifetime.start.p0(i64 8, ptr %4) #10
  call void @llvm.lifetime.start.p0(i64 4, ptr %5) #10
  %11 = load ptr, ptr %2, align 8, !tbaa !93
  %12 = getelementptr inbounds nuw %struct.strbuf, ptr %11, i32 0, i32 1
  %13 = load i64, ptr %12, align 8, !tbaa !83
  %14 = trunc i64 %13 to i32
  store i32 %14, ptr %5, align 4, !tbaa !16
  %15 = load ptr, ptr %3, align 8, !tbaa !100
  %16 = icmp ne ptr %15, null
  br i1 %16, label %21, label %17

17:                                               ; preds = %1
  %18 = load ptr, ptr %2, align 8, !tbaa !93
  %19 = getelementptr inbounds nuw %struct.strbuf, ptr %18, i32 0, i32 2
  %20 = load ptr, ptr %19, align 8, !tbaa !81
  call void (ptr, ...) @die_errno(ptr noundef @.str.26, ptr noundef %20) #12
  unreachable

21:                                               ; preds = %1
  br label %22

22:                                               ; preds = %59, %21
  %23 = load ptr, ptr %3, align 8, !tbaa !100
  %24 = call ptr @readdir_skip_dot_and_dotdot(ptr noundef %23)
  store ptr %24, ptr %4, align 8, !tbaa !102
  %25 = icmp ne ptr %24, null
  br i1 %25, label %26, label %63

26:                                               ; preds = %22
  call void @llvm.lifetime.start.p0(i64 144, ptr %6) #10
  %27 = load ptr, ptr %2, align 8, !tbaa !93
  call void @strbuf_addch(ptr noundef %27, i32 noundef 47)
  %28 = load ptr, ptr %2, align 8, !tbaa !93
  %29 = load ptr, ptr %4, align 8, !tbaa !102
  %30 = getelementptr inbounds nuw %struct.dirent, ptr %29, i32 0, i32 4
  %31 = getelementptr inbounds [256 x i8], ptr %30, i64 0, i64 0
  call void @strbuf_addstr(ptr noundef %28, ptr noundef %31)
  %32 = load ptr, ptr %2, align 8, !tbaa !93
  %33 = getelementptr inbounds nuw %struct.strbuf, ptr %32, i32 0, i32 2
  %34 = load ptr, ptr %33, align 8, !tbaa !81
  %35 = call i32 @lstat64(ptr noundef %34, ptr noundef %6) #10
  %36 = icmp ne i32 %35, 0
  br i1 %36, label %37, label %41

37:                                               ; preds = %26
  %38 = load ptr, ptr %2, align 8, !tbaa !93
  %39 = getelementptr inbounds nuw %struct.strbuf, ptr %38, i32 0, i32 2
  %40 = load ptr, ptr %39, align 8, !tbaa !81
  call void (ptr, ...) @die_errno(ptr noundef @.str.27, ptr noundef %40) #12
  unreachable

41:                                               ; preds = %26
  %42 = getelementptr inbounds nuw %struct.stat, ptr %6, i32 0, i32 3
  %43 = load i32, ptr %42, align 8, !tbaa !86
  %44 = and i32 %43, 61440
  %45 = icmp eq i32 %44, 16384
  br i1 %45, label %46, label %48

46:                                               ; preds = %41
  %47 = load ptr, ptr %2, align 8, !tbaa !93
  call void @remove_subtree(ptr noundef %47)
  br label %59

48:                                               ; preds = %41
  %49 = load ptr, ptr %2, align 8, !tbaa !93
  %50 = getelementptr inbounds nuw %struct.strbuf, ptr %49, i32 0, i32 2
  %51 = load ptr, ptr %50, align 8, !tbaa !81
  %52 = call i32 @unlink(ptr noundef %51) #10
  %53 = icmp ne i32 %52, 0
  br i1 %53, label %54, label %58

54:                                               ; preds = %48
  %55 = load ptr, ptr %2, align 8, !tbaa !93
  %56 = getelementptr inbounds nuw %struct.strbuf, ptr %55, i32 0, i32 2
  %57 = load ptr, ptr %56, align 8, !tbaa !81
  call void (ptr, ...) @die_errno(ptr noundef @.str.28, ptr noundef %57) #12
  unreachable

58:                                               ; preds = %48
  br label %59

59:                                               ; preds = %58, %46
  %60 = load ptr, ptr %2, align 8, !tbaa !93
  %61 = load i32, ptr %5, align 4, !tbaa !16
  %62 = sext i32 %61 to i64
  call void @strbuf_setlen(ptr noundef %60, i64 noundef %62)
  call void @llvm.lifetime.end.p0(i64 144, ptr %6) #10
  br label %22, !llvm.loop !104

63:                                               ; preds = %22
  %64 = load ptr, ptr %3, align 8, !tbaa !100
  %65 = call i32 @closedir(ptr noundef %64)
  %66 = load ptr, ptr %2, align 8, !tbaa !93
  %67 = getelementptr inbounds nuw %struct.strbuf, ptr %66, i32 0, i32 2
  %68 = load ptr, ptr %67, align 8, !tbaa !81
  %69 = call i32 @lstat_cache_aware_rmdir(ptr noundef %68)
  %70 = icmp ne i32 %69, 0
  br i1 %70, label %71, label %75

71:                                               ; preds = %63
  %72 = load ptr, ptr %2, align 8, !tbaa !93
  %73 = getelementptr inbounds nuw %struct.strbuf, ptr %72, i32 0, i32 2
  %74 = load ptr, ptr %73, align 8, !tbaa !81
  call void (ptr, ...) @die_errno(ptr noundef @.str.29, ptr noundef %74) #12
  unreachable

75:                                               ; preds = %63
  call void @llvm.lifetime.end.p0(i64 4, ptr %5) #10
  call void @llvm.lifetime.end.p0(i64 8, ptr %4) #10
  call void @llvm.lifetime.end.p0(i64 8, ptr %3) #10
  ret void
}