; Function Attrs: nounwind uwtable
define internal fastcc void @remove_subtree() unnamed_addr #0 {
  %1 = alloca %struct.stat, align 8
  %2 = load ptr, ptr getelementptr inbounds nuw (i8, ptr @checkout_entry_ca.path, i64 16), align 8, !tbaa !63
  %3 = tail call ptr @opendir(ptr noundef %2)
  %4 = load i64, ptr getelementptr inbounds nuw (i8, ptr @checkout_entry_ca.path, i64 8), align 8, !tbaa !61
  %.not = icmp eq ptr %3, null
  br i1 %.not, label %8, label %.preheader

.preheader:                                       ; preds = %0
  %5 = tail call ptr @readdir_skip_dot_and_dotdot(ptr noundef nonnull %3) #16
  %.not171 = icmp eq ptr %5, null
  br i1 %.not171, label %._crit_edge, label %.lr.ph

.lr.ph:                                           ; preds = %.preheader
  %6 = getelementptr inbounds nuw i8, ptr %1, i64 24
  %sext = shl i64 %4, 32
  %7 = ashr exact i64 %sext, 32
  br label %10

8:                                                ; preds = %0
  %9 = load ptr, ptr getelementptr inbounds nuw (i8, ptr @checkout_entry_ca.path, i64 16), align 8, !tbaa !63
  tail call void (ptr, ...) @die_errno(ptr noundef nonnull @.str.26, ptr noundef %9) #18
  unreachable

10:                                               ; preds = %.lr.ph, %strbuf_setlen.exit
  %11 = phi ptr [ %5, %.lr.ph ], [ %45, %strbuf_setlen.exit ]
  call void @llvm.lifetime.start.p0(i64 144, ptr nonnull %1) #16
  %12 = load i64, ptr @checkout_entry_ca.path, align 8, !tbaa !78
  %.not.i.i = icmp eq i64 %12, 0
  %13 = load i64, ptr getelementptr inbounds nuw (i8, ptr @checkout_entry_ca.path, i64 8), align 8
  %.neg.i = add i64 %13, 1
  %.not1.i = icmp eq i64 %12, %.neg.i
  %.not.i = select i1 %.not.i.i, i1 true, i1 %.not1.i
  br i1 %.not.i, label %14, label %strbuf_addch.exit

14:                                               ; preds = %10
  tail call void @strbuf_grow(ptr noundef nonnull @checkout_entry_ca.path, i64 noundef 1) #16
  %.pre.i = load i64, ptr getelementptr inbounds nuw (i8, ptr @checkout_entry_ca.path, i64 8), align 8, !tbaa !61
  %.pre2.i = add i64 %.pre.i, 1
  br label %strbuf_addch.exit

strbuf_addch.exit:                                ; preds = %10, %14
  %.pre-phi.i = phi i64 [ %.pre2.i, %14 ], [ %.neg.i, %10 ]
  %15 = phi i64 [ %.pre.i, %14 ], [ %13, %10 ]
  %16 = load ptr, ptr getelementptr inbounds nuw (i8, ptr @checkout_entry_ca.path, i64 16), align 8, !tbaa !63
  store i64 %.pre-phi.i, ptr getelementptr inbounds nuw (i8, ptr @checkout_entry_ca.path, i64 8), align 8, !tbaa !61
  %17 = getelementptr inbounds nuw i8, ptr %16, i64 %15
  store i8 47, ptr %17, align 1, !tbaa !44
  %18 = load ptr, ptr getelementptr inbounds nuw (i8, ptr @checkout_entry_ca.path, i64 16), align 8, !tbaa !63
  %19 = load i64, ptr getelementptr inbounds nuw (i8, ptr @checkout_entry_ca.path, i64 8), align 8, !tbaa !61
  %20 = getelementptr inbounds nuw i8, ptr %18, i64 %19
  store i8 0, ptr %20, align 1, !tbaa !44
  %21 = getelementptr inbounds nuw i8, ptr %11, i64 19
  %22 = tail call i64 @strlen(ptr noundef nonnull dereferenceable(1) %21) #17
  tail call void @strbuf_add(ptr noundef nonnull @checkout_entry_ca.path, ptr noundef nonnull %21, i64 noundef %22) #16
  %23 = load ptr, ptr getelementptr inbounds nuw (i8, ptr @checkout_entry_ca.path, i64 16), align 8, !tbaa !63
  %24 = call i32 @lstat64(ptr noundef %23, ptr noundef nonnull %1) #16
  %.not19 = icmp eq i32 %24, 0
  br i1 %.not19, label %27, label %25

25:                                               ; preds = %strbuf_addch.exit
  %26 = load ptr, ptr getelementptr inbounds nuw (i8, ptr @checkout_entry_ca.path, i64 16), align 8, !tbaa !63
  tail call void (ptr, ...) @die_errno(ptr noundef nonnull @.str.27, ptr noundef %26) #18
  unreachable

27:                                               ; preds = %strbuf_addch.exit
  %28 = load i32, ptr %6, align 8, !tbaa !66
  %29 = and i32 %28, 61440
  %30 = icmp eq i32 %29, 16384
  br i1 %30, label %31, label %32

31:                                               ; preds = %27
  tail call fastcc void @remove_subtree()
  br label %37

32:                                               ; preds = %27
  %33 = load ptr, ptr getelementptr inbounds nuw (i8, ptr @checkout_entry_ca.path, i64 16), align 8, !tbaa !63
  %34 = tail call i32 @unlink(ptr noundef %33) #16
  %.not20 = icmp eq i32 %34, 0
  br i1 %.not20, label %37, label %35

35:                                               ; preds = %32
  %36 = load ptr, ptr getelementptr inbounds nuw (i8, ptr @checkout_entry_ca.path, i64 16), align 8, !tbaa !63
  tail call void (ptr, ...) @die_errno(ptr noundef nonnull @.str.28, ptr noundef %36) #18
  unreachable

37:                                               ; preds = %32, %31
  %38 = load i64, ptr @checkout_entry_ca.path, align 8, !tbaa !78
  %spec.select.i = tail call i64 @llvm.usub.sat.i64(i64 %38, i64 1)
  %39 = icmp ugt i64 %7, %spec.select.i
  br i1 %39, label %40, label %41

40:                                               ; preds = %37
  tail call void (ptr, i32, ptr, ...) @BUG_fl(ptr noundef nonnull @.str.24, i32 noundef 167, ptr noundef nonnull @.str.25) #18
  unreachable

41:                                               ; preds = %37
  store i64 %7, ptr getelementptr inbounds nuw (i8, ptr @checkout_entry_ca.path, i64 8), align 8, !tbaa !61
  %42 = load ptr, ptr getelementptr inbounds nuw (i8, ptr @checkout_entry_ca.path, i64 16), align 8, !tbaa !63
  %.not9.i = icmp eq ptr %42, @strbuf_slopbuf
  br i1 %.not9.i, label %strbuf_setlen.exit, label %43

43:                                               ; preds = %41
  %44 = getelementptr inbounds nuw i8, ptr %42, i64 %7
  store i8 0, ptr %44, align 1, !tbaa !44
  br label %strbuf_setlen.exit

strbuf_setlen.exit:                               ; preds = %41, %43
  call void @llvm.lifetime.end.p0(i64 144, ptr nonnull %1) #16
  %45 = tail call ptr @readdir_skip_dot_and_dotdot(ptr noundef nonnull %3) #16
  %.not17 = icmp eq ptr %45, null
  br i1 %.not17, label %._crit_edge, label %10, !llvm.loop !79

._crit_edge:                                      ; preds = %strbuf_setlen.exit, %.preheader
  %46 = tail call i32 @closedir(ptr noundef nonnull %3)
  %47 = load ptr, ptr getelementptr inbounds nuw (i8, ptr @checkout_entry_ca.path, i64 16), align 8, !tbaa !63
  %48 = tail call i32 @lstat_cache_aware_rmdir(ptr noundef %47) #16
  %.not18 = icmp eq i32 %48, 0
  br i1 %.not18, label %51, label %49

49:                                               ; preds = %._crit_edge
  %50 = load ptr, ptr getelementptr inbounds nuw (i8, ptr @checkout_entry_ca.path, i64 16), align 8, !tbaa !63
  tail call void (ptr, ...) @die_errno(ptr noundef nonnull @.str.29, ptr noundef %50) #18
  unreachable

51:                                               ; preds = %._crit_edge
  ret void
}